; Function Attrs: mustprogress uwtable
define hidden noundef nonnull align 8 dereferenceable(8) ptr @_ZN4lean25get_nested_annotation_argERKNS_4exprE(ptr noundef nonnull readonly align 8 captures(ret: address, provenance) dereferenceable(8) %0) local_unnamed_addr #0 personality ptr @__gxx_personality_v0 {
  %2 = alloca %"class.lean::optional", align 8
  %3 = alloca %"class.lean::optional", align 8
  call void @llvm.lifetime.start.p0(i64 16, ptr nonnull %3) #16
  call void @_ZN4lean13is_annotationERKNS_4exprE(ptr dead_on_unwind nonnull writable sret(%"class.lean::optional") align 8 %3, ptr noundef nonnull align 8 dereferenceable(8) %0)
  %4 = load i8, ptr %3, align 8, !tbaa !34, !range !29, !noundef !30
  %5 = trunc nuw i8 %4 to i1
  br i1 %5, label %.lr.ph, label %._crit_edge

.lr.ph:                                           ; preds = %1
  %6 = getelementptr inbounds nuw i8, ptr %3, i64 8
  %7 = getelementptr inbounds nuw i8, ptr %2, i64 8
  br label %8

8:                                                ; preds = %.lr.ph, %_ZN4lean18get_annotation_argERKNS_4exprE.exit
  %.07 = phi ptr [ %0, %.lr.ph ], [ %38, %_ZN4lean18get_annotation_argERKNS_4exprE.exit ]
  %9 = load ptr, ptr %6, align 8, !tbaa !3
  %10 = ptrtoint ptr %9 to i64
  %11 = and i64 %10, 1
  %.not.i.i.i = icmp eq i64 %11, 0
  br i1 %.not.i.i.i, label %12, label %22

12:                                               ; preds = %8
  %13 = load i32, ptr %9, align 4, !tbaa !10
  %14 = icmp sgt i32 %13, 1
  br i1 %14, label %15, label %17, !prof !13

15:                                               ; preds = %12
  %16 = add nsw i32 %13, -1
  store i32 %16, ptr %9, align 4, !tbaa !10
  br label %22

17:                                               ; preds = %12
  %.not.i.i.i.i = icmp eq i32 %13, 0
  br i1 %.not.i.i.i.i, label %22, label %18

18:                                               ; preds = %17
  invoke void @lean_dec_ref_cold(ptr noundef nonnull %9)
          to label %22 unwind label %19

19:                                               ; preds = %18
  %20 = landingpad { ptr, i32 }
          catch ptr null
  %21 = extractvalue { ptr, i32 } %20, 0
  tail call void @__clang_call_terminate(ptr %21) #17
  unreachable

22:                                               ; preds = %8, %15, %17, %18
  call void @llvm.lifetime.end.p0(i64 16, ptr nonnull %3) #16
  call void @llvm.lifetime.start.p0(i64 16, ptr nonnull %2) #16
  call void @_ZN4lean13is_annotationERKNS_4exprE(ptr dead_on_unwind nonnull writable sret(%"class.lean::optional") align 8 %2, ptr noundef nonnull readonly align 8 dereferenceable(8) %.07)
  %23 = load ptr, ptr %7, align 8, !tbaa !3
  %24 = load i8, ptr %2, align 8, !tbaa !34, !range !29, !noundef !30
  %25 = trunc nuw i8 %24 to i1
  %26 = ptrtoint ptr %23 to i64
  %27 = and i64 %26, 1
  %.not.i.i.i.i4 = icmp eq i64 %27, 0
  %or.cond.i = select i1 %25, i1 %.not.i.i.i.i4, i1 false
  br i1 %or.cond.i, label %28, label %_ZN4lean18get_annotation_argERKNS_4exprE.exit

28:                                               ; preds = %22
  %29 = load i32, ptr %23, align 4, !tbaa !10
  %30 = icmp sgt i32 %29, 1
  br i1 %30, label %31, label %33, !prof !13

31:                                               ; preds = %28
  %32 = add nsw i32 %29, -1
  store i32 %32, ptr %23, align 4, !tbaa !10
  br label %_ZN4lean18get_annotation_argERKNS_4exprE.exit

33:                                               ; preds = %28
  %.not.i.i.i.i.i = icmp eq i32 %29, 0
  br i1 %.not.i.i.i.i.i, label %_ZN4lean18get_annotation_argERKNS_4exprE.exit, label %34

34:                                               ; preds = %33
  invoke void @lean_dec_ref_cold(ptr noundef nonnull %23)
          to label %_ZN4lean18get_annotation_argERKNS_4exprE.exit unwind label %35

35:                                               ; preds = %34
  %36 = landingpad { ptr, i32 }
          catch ptr null
  %37 = extractvalue { ptr, i32 } %36, 0
  tail call void @__clang_call_terminate(ptr %37) #17
  unreachable

_ZN4lean18get_annotation_argERKNS_4exprE.exit:    ; preds = %22, %31, %33, %34
  %38 = getelementptr inbounds nuw i8, ptr %23, i64 16
  call void @llvm.lifetime.end.p0(i64 16, ptr nonnull %2) #16
  call void @llvm.lifetime.start.p0(i64 16, ptr nonnull %3) #16
  call void @_ZN4lean13is_annotationERKNS_4exprE(ptr dead_on_unwind nonnull writable sret(%"class.lean::optional") align 8 %3, ptr noundef nonnull align 8 dereferenceable(8) %38)
  %39 = load i8, ptr %3, align 8, !tbaa !34, !range !29, !noundef !30
  %40 = trunc nuw i8 %39 to i1
  br i1 %40, label %8, label %._crit_edge, !llvm.loop !68

._crit_edge:                                      ; preds = %_ZN4lean18get_annotation_argERKNS_4exprE.exit, %1
  %.0.lcssa = phi ptr [ %0, %1 ], [ %38, %_ZN4lean18get_annotation_argERKNS_4exprE.exit ]
  call void @llvm.lifetime.end.p0(i64 16, ptr nonnull %3) #16
  ret ptr %.0.lcssa
}